; Function Attrs: mustprogress uwtable
define noundef signext i8 @_ZN6icu_7512RegexPattern7matchesERKNS_13UnicodeStringES3_R11UParseErrorR10UErrorCode(ptr noundef nonnull align 8 dereferenceable(64) %regex, ptr noundef nonnull align 8 dereferenceable(64) %input, ptr noundef nonnull align 4 dereferenceable(72) %pe, ptr noundef nonnull align 4 dereferenceable(4) %status) local_unnamed_addr #1 align 2 personality ptr @__gxx_personality_v0 {
entry:
  %0 = load i32, ptr %status, align 4
  %cmp.i = icmp slt i32 %0, 1
  br i1 %cmp.i, label %if.end, label %return

if.end:                                           ; preds = %entry
  %call1 = tail call noundef ptr @_ZN6icu_7512RegexPattern7compileERKNS_13UnicodeStringEjR11UParseErrorR10UErrorCode(ptr noundef nonnull align 8 dereferenceable(64) %regex, i32 noundef 0, ptr noundef nonnull align 4 dereferenceable(72) %pe, ptr noundef nonnull align 4 dereferenceable(4) %status)
  %1 = load i32, ptr %status, align 4
  %cmp.i.i.i = icmp slt i32 %1, 1
  br i1 %cmp.i.i.i, label %if.end.i.i, label %_ZNK6icu_7512RegexPattern7matcherERKNS_13UnicodeStringER10UErrorCode.exit

if.end.i.i:                                       ; preds = %if.end
  %fDeferredStatus.i.i = getelementptr inbounds i8, ptr %call1, i64 120
  %2 = load i32, ptr %fDeferredStatus.i.i, align 8
  %cmp.i4.i.i = icmp slt i32 %2, 1
  br i1 %cmp.i4.i.i, label %if.end6.i.i, label %return.sink.split.i.i

if.end6.i.i:                                      ; preds = %if.end.i.i
  %call7.i.i = tail call noundef ptr @_ZN6icu_757UMemorynwEm(i64 noundef 336) #11
  %new.isnull.i.i = icmp eq ptr %call7.i.i, null
  br i1 %new.isnull.i.i, label %return.sink.split.i.i, label %new.notnull.i.i

new.notnull.i.i:                                  ; preds = %if.end6.i.i
  invoke void @_ZN6icu_7512RegexMatcherC1EPKNS_12RegexPatternE(ptr noundef nonnull align 8 dereferenceable(336) %call7.i.i, ptr noundef nonnull %call1)
          to label %if.then.i unwind label %lpad.i.i

lpad.i.i:                                         ; preds = %new.notnull.i.i
  %3 = landingpad { ptr, i32 }
          cleanup
  tail call void @_ZN6icu_757UMemorydlEPv(ptr noundef nonnull %call7.i.i) #11
  resume { ptr, i32 } %3

return.sink.split.i.i:                            ; preds = %if.end6.i.i, %if.end.i.i
  %.sink.i.i = phi i32 [ %2, %if.end.i.i ], [ 7, %if.end6.i.i ]
  store i32 %.sink.i.i, ptr %status, align 4
  br label %_ZNK6icu_7512RegexPattern7matcherERKNS_13UnicodeStringER10UErrorCode.exit

if.then.i:                                        ; preds = %new.notnull.i.i
  %4 = load i32, ptr %status, align 4
  %fDeferredStatus.i = getelementptr inbounds i8, ptr %call7.i.i, i64 316
  store i32 %4, ptr %fDeferredStatus.i, align 4
  %call2.i = tail call noundef nonnull align 8 dereferenceable(336) ptr @_ZN6icu_7512RegexMatcher5resetERKNS_13UnicodeStringE(ptr noundef nonnull align 8 dereferenceable(336) %call7.i.i, ptr noundef nonnull align 8 dereferenceable(64) %input)
  br label %_ZNK6icu_7512RegexPattern7matcherERKNS_13UnicodeStringER10UErrorCode.exit

_ZNK6icu_7512RegexPattern7matcherERKNS_13UnicodeStringER10UErrorCode.exit: ; preds = %if.end, %return.sink.split.i.i, %if.then.i
  %retval.0.i7.i = phi ptr [ %call7.i.i, %if.then.i ], [ null, %if.end ], [ null, %return.sink.split.i.i ]
  %call3 = tail call noundef signext i8 @_ZN6icu_7512RegexMatcher7matchesER10UErrorCode(ptr noundef nonnull align 8 dereferenceable(336) %retval.0.i7.i, ptr noundef nonnull align 4 dereferenceable(4) %status)
  tail call void @_ZN6icu_7512RegexMatcherD1Ev(ptr noundef nonnull align 8 dereferenceable(336) %retval.0.i7.i) #11
  tail call void @_ZN6icu_757UMemorydlEPv(ptr noundef nonnull %retval.0.i7.i) #11
  tail call void @_ZN6icu_7512RegexPatternD1Ev(ptr noundef nonnull align 8 dereferenceable(200) %call1) #11
  tail call void @_ZN6icu_757UMemorydlEPv(ptr noundef nonnull %call1) #11
  br label %return

return:                                           ; preds = %entry, %_ZNK6icu_7512RegexPattern7matcherERKNS_13UnicodeStringER10UErrorCode.exit
  %retval.0 = phi i8 [ %call3, %_ZNK6icu_7512RegexPattern7matcherERKNS_13UnicodeStringER10UErrorCode.exit ], [ 0, %entry ]
  ret i8 %retval.0
}